target datalayout = "e-m:e-p270:32:32-p271:32:32-p272:64:64-i64:64-i128:128-f80:128-n8:16:32:64-S128"
target triple = "x86_64-pc-linux-gnu"

%"struct.faiss::Level1Quantizer" = type { ptr, i64, i8, i8, [6 x i8], %"struct.faiss::ClusteringParameters", ptr }
%"struct.faiss::ClusteringParameters" = type <{ i32, i32, i8, i8, i8, i8, i8, [3 x i8], i32, i32, i32, [4 x i8], i64, i8, i8, [6 x i8] }>

; Function Attrs: mustprogress nounwind uwtable
define void @_ZNK5faiss15Level1Quantizer13encode_listnoElPh(ptr noundef nonnull align 8 dereferenceable(80) %0, i64 noundef %1, ptr noundef %2) #1 align 2 {
  %4 = alloca ptr, align 8
  %5 = alloca i64, align 8
  %6 = alloca ptr, align 8
  %7 = alloca i64, align 8
  store ptr %0, ptr %4, align 8, !tbaa !134
  store i64 %1, ptr %5, align 8, !tbaa !9
  store ptr %2, ptr %6, align 8, !tbaa !11
  %8 = load ptr, ptr %4, align 8
  call void @llvm.lifetime.start.p0(i64 8, ptr %7) #20
  %9 = getelementptr inbounds nuw %"struct.faiss::Level1Quantizer", ptr %8, i32 0, i32 1
  %10 = load i64, ptr %9, align 8, !tbaa !102
  %11 = sub i64 %10, 1
  store i64 %11, ptr %7, align 8, !tbaa !9
  br label %12

12:                                               ; preds = %15, %3
  %13 = load i64, ptr %7, align 8, !tbaa !9
  %14 = icmp ugt i64 %13, 0
  br i1 %14, label %15, label %25

15:                                               ; preds = %12
  %16 = load i64, ptr %5, align 8, !tbaa !9
  %17 = and i64 %16, 255
  %18 = trunc i64 %17 to i8
  %19 = load ptr, ptr %6, align 8, !tbaa !11
  %20 = getelementptr inbounds nuw i8, ptr %19, i32 1
  store ptr %20, ptr %6, align 8, !tbaa !11
  store i8 %18, ptr %19, align 1, !tbaa !177
  %21 = load i64, ptr %5, align 8, !tbaa !9
  %22 = ashr i64 %21, 8
  store i64 %22, ptr %5, align 8, !tbaa !9
  %23 = load i64, ptr %7, align 8, !tbaa !9
  %24 = lshr i64 %23, 8
  store i64 %24, ptr %7, align 8, !tbaa !9
  br label %12, !llvm.loop !222

25:                                               ; preds = %12
  call void @llvm.lifetime.end.p0(i64 8, ptr %7) #20
  ret void
}