; Function Attrs: mustprogress nofree norecurse nosync nounwind memory(argmem: readwrite) uwtable
define void @_ZNK5faiss15Level1Quantizer13encode_listnoElPh(ptr noundef nonnull readonly align 8 captures(none) dereferenceable(80) %0, i64 noundef %1, ptr noundef writeonly captures(none) %2) local_unnamed_addr #20 align 2 {
  %4 = getelementptr inbounds nuw i8, ptr %0, i64 8
  %5 = load i64, ptr %4, align 8, !tbaa !99
  %6 = add i64 %5, -1
  %.not7 = icmp eq i64 %6, 0
  br i1 %.not7, label %._crit_edge, label %.lr.ph

.lr.ph:                                           ; preds = %3, %.lr.ph
  %.010 = phi i64 [ %10, %.lr.ph ], [ %6, %3 ]
  %.059 = phi ptr [ %8, %.lr.ph ], [ %2, %3 ]
  %.068 = phi i64 [ %9, %.lr.ph ], [ %1, %3 ]
  %7 = trunc i64 %.068 to i8
  %8 = getelementptr inbounds nuw i8, ptr %.059, i64 1
  store i8 %7, ptr %.059, align 1, !tbaa !67
  %9 = ashr i64 %.068, 8
  %10 = lshr i64 %.010, 8
  %.not = icmp ult i64 %.010, 256
  br i1 %.not, label %._crit_edge, label %.lr.ph, !llvm.loop !158

._crit_edge:                                      ; preds = %.lr.ph, %3
  ret void
}